
test.elf:     file format elf32-littlearm


Disassembly of section .text:

00000000 <__isr_vector>:
   0:	00010000 	andeq	r0, r1, r0
   4:	000000d1 	ldrdeq	r0, [r0], -r1
   8:	000000f9 	strdeq	r0, [r0], -r9
   c:	000000fb 	strdeq	r0, [r0], -fp
	...
  2c:	000000fd 	strdeq	r0, [r0], -sp
	...
  38:	000000ff 	strdeq	r0, [r0], -pc	@ <UNPREDICTABLE>
  3c:	00000101 	andeq	r0, r0, r1, lsl #2
  40:	00000103 	andeq	r0, r0, r3, lsl #2
  44:	00000105 	andeq	r0, r0, r5, lsl #2
  48:	00000107 	andeq	r0, r0, r7, lsl #2
  4c:	00000109 	andeq	r0, r0, r9, lsl #2
  50:	0000010b 	andeq	r0, r0, fp, lsl #2
  54:	0000010d 	andeq	r0, r0, sp, lsl #2
  58:	0000010f 	andeq	r0, r0, pc, lsl #2
  5c:	00000111 	andeq	r0, r0, r1, lsl r1
  60:	00000113 	andeq	r0, r0, r3, lsl r1
  64:	00000115 	andeq	r0, r0, r5, lsl r1
  68:	00000117 	andeq	r0, r0, r7, lsl r1
  6c:	00000119 	andeq	r0, r0, r9, lsl r1
  70:	0000011b 	andeq	r0, r0, fp, lsl r1
  74:	0000011d 	andeq	r0, r0, sp, lsl r1
  78:	0000011f 	andeq	r0, r0, pc, lsl r1
  7c:	00000121 	andeq	r0, r0, r1, lsr #2
  80:	00000123 	andeq	r0, r0, r3, lsr #2
  84:	00000125 	andeq	r0, r0, r5, lsr #2
  88:	00000127 	andeq	r0, r0, r7, lsr #2
  8c:	00000129 	andeq	r0, r0, r9, lsr #2
  90:	0000012b 	andeq	r0, r0, fp, lsr #2
  94:	0000012d 	andeq	r0, r0, sp, lsr #2
  98:	0000012f 	andeq	r0, r0, pc, lsr #2
  9c:	00000131 	andeq	r0, r0, r1, lsr r1
  a0:	00000133 	andeq	r0, r0, r3, lsr r1
  a4:	00000135 	andeq	r0, r0, r5, lsr r1
  a8:	00000137 	andeq	r0, r0, r7, lsr r1
  ac:	00000139 	andeq	r0, r0, r9, lsr r1
  b0:	0000013b 	andeq	r0, r0, fp, lsr r1
  b4:	0000013d 	andeq	r0, r0, sp, lsr r1
  b8:	0000013f 	andeq	r0, r0, pc, lsr r1
  bc:	00000141 	andeq	r0, r0, r1, asr #2
  c0:	00010000 	andeq	r0, r1, r0
  c4:	00010000 	andeq	r0, r1, r0
  c8:	00000230 	andeq	r0, r0, r0, lsr r2
  cc:	00001230 	andeq	r1, r0, r0, lsr r2

000000d0 <Reset_Handler>:
  d0:	2000      	movs	r0, #0
  d2:	2100      	movs	r1, #0
  d4:	2200      	movs	r2, #0
  d6:	2300      	movs	r3, #0
  d8:	2400      	movs	r4, #0
  da:	2500      	movs	r5, #0
  dc:	2600      	movs	r6, #0
  de:	2700      	movs	r7, #0
  e0:	46b8      	mov	r8, r7
  e2:	46b9      	mov	r9, r7
  e4:	46ba      	mov	sl, r7
  e6:	46bb      	mov	fp, r7
  e8:	46bc      	mov	ip, r7
  ea:	46be      	mov	lr, r7
  ec:	e7ff      	b.n	ee <asm>

000000ee <asm>:
  ee:	2101      	movs	r1, #1
  f0:	1840      	adds	r0, r0, r1
  f2:	f000 f87d 	bl	1f0 <main>
  f6:	e7fa      	b.n	ee <asm>

000000f8 <NMI_Handler>:
  f8:	e7fe      	b.n	f8 <NMI_Handler>

000000fa <HardFault_Handler>:
  fa:	e7fe      	b.n	fa <HardFault_Handler>

000000fc <SVC_Handler>:
  fc:	e7fe      	b.n	fc <SVC_Handler>

000000fe <PendSV_Handler>:
  fe:	e7fe      	b.n	fe <PendSV_Handler>

00000100 <SysTick_Handler>:
 100:	e7fe      	b.n	100 <SysTick_Handler>

00000102 <IRQ_Handler0>:
 102:	e7fe      	b.n	102 <IRQ_Handler0>

00000104 <IRQ_Handler1>:
 104:	e7fe      	b.n	104 <IRQ_Handler1>

00000106 <IRQ_Handler2>:
 106:	e7fe      	b.n	106 <IRQ_Handler2>

00000108 <IRQ_Handler3>:
 108:	e7fe      	b.n	108 <IRQ_Handler3>

0000010a <IRQ_Handler4>:
 10a:	e7fe      	b.n	10a <IRQ_Handler4>

0000010c <IRQ_Handler5>:
 10c:	e7fe      	b.n	10c <IRQ_Handler5>

0000010e <IRQ_Handler6>:
 10e:	e7fe      	b.n	10e <IRQ_Handler6>

00000110 <IRQ_Handler7>:
 110:	e7fe      	b.n	110 <IRQ_Handler7>

00000112 <IRQ_Handler8>:
 112:	e7fe      	b.n	112 <IRQ_Handler8>

00000114 <IRQ_Handler9>:
 114:	e7fe      	b.n	114 <IRQ_Handler9>

00000116 <IRQ_Handler10>:
 116:	e7fe      	b.n	116 <IRQ_Handler10>

00000118 <IRQ_Handler11>:
 118:	e7fe      	b.n	118 <IRQ_Handler11>

0000011a <IRQ_Handler12>:
 11a:	e7fe      	b.n	11a <IRQ_Handler12>

0000011c <IRQ_Handler13>:
 11c:	e7fe      	b.n	11c <IRQ_Handler13>

0000011e <IRQ_Handler14>:
 11e:	e7fe      	b.n	11e <IRQ_Handler14>

00000120 <IRQ_Handler15>:
 120:	e7fe      	b.n	120 <IRQ_Handler15>

00000122 <IRQ_Handler16>:
 122:	e7fe      	b.n	122 <IRQ_Handler16>

00000124 <IRQ_Handler17>:
 124:	e7fe      	b.n	124 <IRQ_Handler17>

00000126 <IRQ_Handler18>:
 126:	e7fe      	b.n	126 <IRQ_Handler18>

00000128 <IRQ_Handler19>:
 128:	e7fe      	b.n	128 <IRQ_Handler19>

0000012a <IRQ_Handler20>:
 12a:	e7fe      	b.n	12a <IRQ_Handler20>

0000012c <IRQ_Handler21>:
 12c:	e7fe      	b.n	12c <IRQ_Handler21>

0000012e <IRQ_Handler22>:
 12e:	e7fe      	b.n	12e <IRQ_Handler22>

00000130 <IRQ_Handler23>:
 130:	e7fe      	b.n	130 <IRQ_Handler23>

00000132 <IRQ_Handler24>:
 132:	e7fe      	b.n	132 <IRQ_Handler24>

00000134 <IRQ_Handler25>:
 134:	e7fe      	b.n	134 <IRQ_Handler25>

00000136 <IRQ_Handler26>:
 136:	e7fe      	b.n	136 <IRQ_Handler26>

00000138 <IRQ_Handler27>:
 138:	e7fe      	b.n	138 <IRQ_Handler27>

0000013a <IRQ_Handler28>:
 13a:	e7fe      	b.n	13a <IRQ_Handler28>

0000013c <IRQ_Handler29>:
 13c:	e7fe      	b.n	13c <IRQ_Handler29>

0000013e <IRQ_Handler30>:
 13e:	e7fe      	b.n	13e <IRQ_Handler30>

00000140 <IRQ_Handler31>:
 140:	e7fe      	b.n	140 <IRQ_Handler31>

00000142 <sort_string>:
 142:	b580      	push	{r7, lr}
 144:	b088      	sub	sp, #32
 146:	af00      	add	r7, sp, #0
 148:	60f8      	str	r0, [r7, #12]
 14a:	60b9      	str	r1, [r7, #8]
 14c:	607a      	str	r2, [r7, #4]
 14e:	2300      	movs	r3, #0
 150:	61fb      	str	r3, [r7, #28]
 152:	e00a      	b.n	16a <sort_string+0x28>
 154:	69fb      	ldr	r3, [r7, #28]
 156:	68fa      	ldr	r2, [r7, #12]
 158:	18d2      	adds	r2, r2, r3
 15a:	69fb      	ldr	r3, [r7, #28]
 15c:	68b9      	ldr	r1, [r7, #8]
 15e:	18cb      	adds	r3, r1, r3
 160:	7812      	ldrb	r2, [r2, #0]
 162:	701a      	strb	r2, [r3, #0]
 164:	69fb      	ldr	r3, [r7, #28]
 166:	3301      	adds	r3, #1
 168:	61fb      	str	r3, [r7, #28]
 16a:	69fa      	ldr	r2, [r7, #28]
 16c:	687b      	ldr	r3, [r7, #4]
 16e:	429a      	cmp	r2, r3
 170:	dbf0      	blt.n	154 <sort_string+0x12>
 172:	687b      	ldr	r3, [r7, #4]
 174:	68ba      	ldr	r2, [r7, #8]
 176:	18d3      	adds	r3, r2, r3
 178:	2200      	movs	r2, #0
 17a:	701a      	strb	r2, [r3, #0]
 17c:	2300      	movs	r3, #0
 17e:	61fb      	str	r3, [r7, #28]
 180:	e02c      	b.n	1dc <sort_string+0x9a>
 182:	69fb      	ldr	r3, [r7, #28]
 184:	3301      	adds	r3, #1
 186:	61bb      	str	r3, [r7, #24]
 188:	e021      	b.n	1ce <sort_string+0x8c>
 18a:	69fb      	ldr	r3, [r7, #28]
 18c:	68ba      	ldr	r2, [r7, #8]
 18e:	18d3      	adds	r3, r2, r3
 190:	781a      	ldrb	r2, [r3, #0]
 192:	69bb      	ldr	r3, [r7, #24]
 194:	68b9      	ldr	r1, [r7, #8]
 196:	18cb      	adds	r3, r1, r3
 198:	781b      	ldrb	r3, [r3, #0]
 19a:	429a      	cmp	r2, r3
 19c:	d914      	bls.n	1c8 <sort_string+0x86>
 19e:	69fb      	ldr	r3, [r7, #28]
 1a0:	68ba      	ldr	r2, [r7, #8]
 1a2:	18d2      	adds	r2, r2, r3
 1a4:	2017      	movs	r0, #23
 1a6:	183b      	adds	r3, r7, r0
 1a8:	7812      	ldrb	r2, [r2, #0]
 1aa:	701a      	strb	r2, [r3, #0]
 1ac:	69bb      	ldr	r3, [r7, #24]
 1ae:	68ba      	ldr	r2, [r7, #8]
 1b0:	18d2      	adds	r2, r2, r3
 1b2:	69fb      	ldr	r3, [r7, #28]
 1b4:	68b9      	ldr	r1, [r7, #8]
 1b6:	18cb      	adds	r3, r1, r3
 1b8:	7812      	ldrb	r2, [r2, #0]
 1ba:	701a      	strb	r2, [r3, #0]
 1bc:	69bb      	ldr	r3, [r7, #24]
 1be:	68ba      	ldr	r2, [r7, #8]
 1c0:	18d3      	adds	r3, r2, r3
 1c2:	183a      	adds	r2, r7, r0
 1c4:	7812      	ldrb	r2, [r2, #0]
 1c6:	701a      	strb	r2, [r3, #0]
 1c8:	69bb      	ldr	r3, [r7, #24]
 1ca:	3301      	adds	r3, #1
 1cc:	61bb      	str	r3, [r7, #24]
 1ce:	69ba      	ldr	r2, [r7, #24]
 1d0:	687b      	ldr	r3, [r7, #4]
 1d2:	429a      	cmp	r2, r3
 1d4:	dbd9      	blt.n	18a <sort_string+0x48>
 1d6:	69fb      	ldr	r3, [r7, #28]
 1d8:	3301      	adds	r3, #1
 1da:	61fb      	str	r3, [r7, #28]
 1dc:	687b      	ldr	r3, [r7, #4]
 1de:	3b01      	subs	r3, #1
 1e0:	69fa      	ldr	r2, [r7, #28]
 1e2:	429a      	cmp	r2, r3
 1e4:	dbcd      	blt.n	182 <sort_string+0x40>
 1e6:	46c0      	nop			@ (mov r8, r8)
 1e8:	46c0      	nop			@ (mov r8, r8)
 1ea:	46bd      	mov	sp, r7
 1ec:	b008      	add	sp, #32
 1ee:	bd80      	pop	{r7, pc}

000001f0 <main>:
 1f0:	b5b0      	push	{r4, r5, r7, lr}
 1f2:	b088      	sub	sp, #32
 1f4:	af00      	add	r7, sp, #0
 1f6:	2510      	movs	r5, #16
 1f8:	197b      	adds	r3, r7, r5
 1fa:	4a08      	ldr	r2, [pc, #32]	@ (21c <Stack_Size+0x1c>)
 1fc:	ca13      	ldmia	r2!, {r0, r1, r4}
 1fe:	c313      	stmia	r3!, {r0, r1, r4}
 200:	7812      	ldrb	r2, [r2, #0]
 202:	701a      	strb	r2, [r3, #0]
 204:	0039      	movs	r1, r7
 206:	197b      	adds	r3, r7, r5
 208:	220c      	movs	r2, #12
 20a:	0018      	movs	r0, r3
 20c:	f7ff ff99 	bl	142 <sort_string>
 210:	2300      	movs	r3, #0
 212:	0018      	movs	r0, r3
 214:	46bd      	mov	sp, r7
 216:	b008      	add	sp, #32
 218:	bdb0      	pop	{r4, r5, r7, pc}
 21a:	46c0      	nop			@ (mov r8, r8)
 21c:	00000220 	andeq	r0, r0, r0, lsr #4
 220:	52455751 	subpl	r5, r5, #21233664	@ 0x1440000
 224:	53415954 	movtpl	r5, #6484	@ 0x1954
 228:	48474644 	stmdami	r7, {r2, r6, r9, sl, lr}^
	...
